; Function Attrs: nounwind uwtable
define ptr @l_Array_findSomeRevM_x3f_find___at_Lake_Package_findTargetModule_x3f___spec__1(ptr noundef %0, ptr noundef readonly captures(none) %1, ptr noundef %2, ptr readnone captures(none) %3) local_unnamed_addr #0 {
  %5 = getelementptr inbounds nuw i8, ptr %1, i64 24
  br label %lean_dec.exit22

lean_dec.exit22:                                  ; preds = %lean_obj_tag.exit, %4
  %.019 = phi ptr [ %2, %4 ], [ %.1.i33, %lean_obj_tag.exit ]
  %6 = ptrtoint ptr %.019 to i64
  %7 = and i64 %6, 1
  %.not = icmp eq i64 %7, 0
  br i1 %.not, label %lean_nat_eq.exit.thread, label %lean_nat_eq.exit, !prof !17

lean_nat_eq.exit:                                 ; preds = %lean_dec.exit22
  %.not41 = icmp eq ptr %.019, inttoptr (i64 1 to ptr)
  br i1 %.not41, label %.loopexit, label %9

lean_nat_eq.exit.thread:                          ; preds = %lean_dec.exit22
  %8 = tail call zeroext i1 @lean_nat_big_eq(ptr noundef %.019, ptr noundef nonnull inttoptr (i64 1 to ptr)) #4
  br i1 %8, label %.thread34, label %.thread

9:                                                ; preds = %lean_nat_eq.exit
  %10 = icmp ult ptr %.019, inttoptr (i64 2 to ptr)
  br i1 %10, label %lean_dec.exit23, label %11

11:                                               ; preds = %9
  %12 = add i64 %6, -2
  %13 = inttoptr i64 %12 to ptr
  br label %lean_dec.exit23

.thread:                                          ; preds = %lean_nat_eq.exit.thread
  %14 = tail call ptr @lean_nat_big_sub(ptr noundef %.019, ptr noundef nonnull inttoptr (i64 3 to ptr)) #4
  %15 = load i32, ptr %.019, align 4, !tbaa !8
  %16 = icmp sgt i32 %15, 1
  br i1 %16, label %17, label %19, !prof !11

17:                                               ; preds = %.thread
  %18 = add nsw i32 %15, -1
  store i32 %18, ptr %.019, align 4, !tbaa !8
  br label %lean_dec.exit23

19:                                               ; preds = %.thread
  %.not.i = icmp eq i32 %15, 0
  br i1 %.not.i, label %lean_dec.exit23, label %20

20:                                               ; preds = %19
  tail call void @lean_dec_ref_cold(ptr noundef nonnull %.019) #4
  br label %lean_dec.exit23

lean_dec.exit23:                                  ; preds = %11, %9, %20, %19, %17
  %.1.i33 = phi ptr [ %14, %17 ], [ %14, %19 ], [ %14, %20 ], [ inttoptr (i64 1 to ptr), %9 ], [ %13, %11 ]
  %21 = ptrtoint ptr %.1.i33 to i64
  %22 = lshr i64 %21, 1
  %23 = getelementptr inbounds nuw [0 x ptr], ptr %5, i64 0, i64 %22
  %24 = load ptr, ptr %23, align 8, !tbaa !4
  %25 = ptrtoint ptr %24 to i64
  %26 = and i64 %25, 1
  %.not.i.i = icmp eq i64 %26, 0
  br i1 %.not.i.i, label %27, label %lean_array_fget.exit

27:                                               ; preds = %lean_dec.exit23
  %.val.i.i.i = load i32, ptr %24, align 4, !tbaa !8
  %28 = icmp sgt i32 %.val.i.i.i, 0
  br i1 %28, label %29, label %31, !prof !11

29:                                               ; preds = %27
  %30 = add nuw i32 %.val.i.i.i, 1
  store i32 %30, ptr %24, align 4, !tbaa !8
  br label %lean_array_fget.exit

31:                                               ; preds = %27
  %.not.i.i.i = icmp eq i32 %.val.i.i.i, 0
  br i1 %.not.i.i.i, label %lean_array_fget.exit, label %32

32:                                               ; preds = %31
  tail call void @lean_inc_ref_cold(ptr noundef nonnull %24) #4
  br label %lean_array_fget.exit

lean_array_fget.exit:                             ; preds = %lean_dec.exit23, %29, %31, %32
  %33 = tail call ptr @l_Lake_LeanExe_isRoot_x3f(ptr noundef %0, ptr noundef %24)
  %34 = ptrtoint ptr %33 to i64
  %35 = and i64 %34, 1
  %.not.i29 = icmp eq i64 %35, 0
  br i1 %.not.i29, label %39, label %36

36:                                               ; preds = %lean_array_fget.exit
  %37 = lshr i64 %34, 1
  %38 = trunc i64 %37 to i32
  br label %lean_obj_tag.exit

39:                                               ; preds = %lean_array_fget.exit
  %40 = getelementptr i8, ptr %33, i64 4
  %.val.i = load i32, ptr %40, align 4
  %41 = lshr i32 %.val.i, 24
  br label %lean_obj_tag.exit

lean_obj_tag.exit:                                ; preds = %36, %39
  %.0.i30 = phi i32 [ %38, %36 ], [ %41, %39 ]
  %42 = icmp eq i32 %.0.i30, 0
  br i1 %42, label %lean_dec.exit22, label %43

43:                                               ; preds = %lean_obj_tag.exit
  %44 = and i64 %21, 1
  %.not42 = icmp eq i64 %44, 0
  br i1 %.not42, label %45, label %.loopexit

45:                                               ; preds = %43
  %46 = load i32, ptr %.1.i33, align 4, !tbaa !8
  %47 = icmp sgt i32 %46, 1
  br i1 %47, label %48, label %50, !prof !11

48:                                               ; preds = %45
  %49 = add nsw i32 %46, -1
  store i32 %49, ptr %.1.i33, align 4, !tbaa !8
  br label %.loopexit

50:                                               ; preds = %45
  %.not.i24 = icmp eq i32 %46, 0
  br i1 %.not.i24, label %.loopexit, label %51

51:                                               ; preds = %50
  tail call void @lean_dec_ref_cold(ptr noundef nonnull %.1.i33) #4
  br label %.loopexit

.thread34:                                        ; preds = %lean_nat_eq.exit.thread
  %52 = load i32, ptr %.019, align 4, !tbaa !8
  %53 = icmp sgt i32 %52, 1
  br i1 %53, label %54, label %56, !prof !11

54:                                               ; preds = %.thread34
  %55 = add nsw i32 %52, -1
  store i32 %55, ptr %.019, align 4, !tbaa !8
  br label %.loopexit

56:                                               ; preds = %.thread34
  %.not.i26 = icmp eq i32 %52, 0
  br i1 %.not.i26, label %.loopexit, label %57

57:                                               ; preds = %56
  tail call void @lean_dec_ref_cold(ptr noundef nonnull %.019) #4
  br label %.loopexit

.loopexit:                                        ; preds = %lean_nat_eq.exit, %51, %50, %48, %43, %57, %56, %54
  %.2.ph = phi ptr [ inttoptr (i64 1 to ptr), %54 ], [ inttoptr (i64 1 to ptr), %56 ], [ inttoptr (i64 1 to ptr), %57 ], [ %33, %43 ], [ %33, %48 ], [ %33, %50 ], [ %33, %51 ], [ inttoptr (i64 1 to ptr), %lean_nat_eq.exit ]
  ret ptr %.2.ph
}